
LinkedListInsertions.out:     file format elf64-x86-64


Disassembly of section .init:

0000000000001000 <_init>:
    1000:	f3 0f 1e fa          	endbr64 
    1004:	48 83 ec 08          	sub    $0x8,%rsp
    1008:	48 8b 05 d9 2f 00 00 	mov    0x2fd9(%rip),%rax        # 3fe8 <__gmon_start__>
    100f:	48 85 c0             	test   %rax,%rax
    1012:	74 02                	je     1016 <_init+0x16>
    1014:	ff d0                	callq  *%rax
    1016:	48 83 c4 08          	add    $0x8,%rsp
    101a:	c3                   	retq   

Disassembly of section .plt:

0000000000001020 <.plt>:
    1020:	ff 35 8a 2f 00 00    	pushq  0x2f8a(%rip)        # 3fb0 <_GLOBAL_OFFSET_TABLE_+0x8>
    1026:	f2 ff 25 8b 2f 00 00 	bnd jmpq *0x2f8b(%rip)        # 3fb8 <_GLOBAL_OFFSET_TABLE_+0x10>
    102d:	0f 1f 00             	nopl   (%rax)
    1030:	f3 0f 1e fa          	endbr64 
    1034:	68 00 00 00 00       	pushq  $0x0
    1039:	f2 e9 e1 ff ff ff    	bnd jmpq 1020 <.plt>
    103f:	90                   	nop
    1040:	f3 0f 1e fa          	endbr64 
    1044:	68 01 00 00 00       	pushq  $0x1
    1049:	f2 e9 d1 ff ff ff    	bnd jmpq 1020 <.plt>
    104f:	90                   	nop
    1050:	f3 0f 1e fa          	endbr64 
    1054:	68 02 00 00 00       	pushq  $0x2
    1059:	f2 e9 c1 ff ff ff    	bnd jmpq 1020 <.plt>
    105f:	90                   	nop

Disassembly of section .plt.got:

0000000000001060 <__cxa_finalize@plt>:
    1060:	f3 0f 1e fa          	endbr64 
    1064:	f2 ff 25 8d 2f 00 00 	bnd jmpq *0x2f8d(%rip)        # 3ff8 <__cxa_finalize@GLIBC_2.2.5>
    106b:	0f 1f 44 00 00       	nopl   0x0(%rax,%rax,1)

Disassembly of section .plt.sec:

0000000000001070 <__stack_chk_fail@plt>:
    1070:	f3 0f 1e fa          	endbr64 
    1074:	f2 ff 25 45 2f 00 00 	bnd jmpq *0x2f45(%rip)        # 3fc0 <__stack_chk_fail@GLIBC_2.4>
    107b:	0f 1f 44 00 00       	nopl   0x0(%rax,%rax,1)

0000000000001080 <printf@plt>:
    1080:	f3 0f 1e fa          	endbr64 
    1084:	f2 ff 25 3d 2f 00 00 	bnd jmpq *0x2f3d(%rip)        # 3fc8 <printf@GLIBC_2.2.5>
    108b:	0f 1f 44 00 00       	nopl   0x0(%rax,%rax,1)

0000000000001090 <malloc@plt>:
    1090:	f3 0f 1e fa          	endbr64 
    1094:	f2 ff 25 35 2f 00 00 	bnd jmpq *0x2f35(%rip)        # 3fd0 <malloc@GLIBC_2.2.5>
    109b:	0f 1f 44 00 00       	nopl   0x0(%rax,%rax,1)

Disassembly of section .text:

00000000000010a0 <_start>:
    10a0:	f3 0f 1e fa          	endbr64 
    10a4:	31 ed                	xor    %ebp,%ebp
    10a6:	49 89 d1             	mov    %rdx,%r9
    10a9:	5e                   	pop    %rsi
    10aa:	48 89 e2             	mov    %rsp,%rdx
    10ad:	48 83 e4 f0          	and    $0xfffffffffffffff0,%rsp
    10b1:	50                   	push   %rax
    10b2:	54                   	push   %rsp
    10b3:	4c 8d 05 66 03 00 00 	lea    0x366(%rip),%r8        # 1420 <__libc_csu_fini>
    10ba:	48 8d 0d ef 02 00 00 	lea    0x2ef(%rip),%rcx        # 13b0 <__libc_csu_init>
    10c1:	48 8d 3d 2e 02 00 00 	lea    0x22e(%rip),%rdi        # 12f6 <main>
    10c8:	ff 15 12 2f 00 00    	callq  *0x2f12(%rip)        # 3fe0 <__libc_start_main@GLIBC_2.2.5>
    10ce:	f4                   	hlt    
    10cf:	90                   	nop

00000000000010d0 <deregister_tm_clones>:
    10d0:	48 8d 3d 39 2f 00 00 	lea    0x2f39(%rip),%rdi        # 4010 <__TMC_END__>
    10d7:	48 8d 05 32 2f 00 00 	lea    0x2f32(%rip),%rax        # 4010 <__TMC_END__>
    10de:	48 39 f8             	cmp    %rdi,%rax
    10e1:	74 15                	je     10f8 <deregister_tm_clones+0x28>
    10e3:	48 8b 05 ee 2e 00 00 	mov    0x2eee(%rip),%rax        # 3fd8 <_ITM_deregisterTMCloneTable>
    10ea:	48 85 c0             	test   %rax,%rax
    10ed:	74 09                	je     10f8 <deregister_tm_clones+0x28>
    10ef:	ff e0                	jmpq   *%rax
    10f1:	0f 1f 80 00 00 00 00 	nopl   0x0(%rax)
    10f8:	c3                   	retq   
    10f9:	0f 1f 80 00 00 00 00 	nopl   0x0(%rax)

0000000000001100 <register_tm_clones>:
    1100:	48 8d 3d 09 2f 00 00 	lea    0x2f09(%rip),%rdi        # 4010 <__TMC_END__>
    1107:	48 8d 35 02 2f 00 00 	lea    0x2f02(%rip),%rsi        # 4010 <__TMC_END__>
    110e:	48 29 fe             	sub    %rdi,%rsi
    1111:	48 89 f0             	mov    %rsi,%rax
    1114:	48 c1 ee 3f          	shr    $0x3f,%rsi
    1118:	48 c1 f8 03          	sar    $0x3,%rax
    111c:	48 01 c6             	add    %rax,%rsi
    111f:	48 d1 fe             	sar    %rsi
    1122:	74 14                	je     1138 <register_tm_clones+0x38>
    1124:	48 8b 05 c5 2e 00 00 	mov    0x2ec5(%rip),%rax        # 3ff0 <_ITM_registerTMCloneTable>
    112b:	48 85 c0             	test   %rax,%rax
    112e:	74 08                	je     1138 <register_tm_clones+0x38>
    1130:	ff e0                	jmpq   *%rax
    1132:	66 0f 1f 44 00 00    	nopw   0x0(%rax,%rax,1)
    1138:	c3                   	retq   
    1139:	0f 1f 80 00 00 00 00 	nopl   0x0(%rax)

0000000000001140 <__do_global_dtors_aux>:
    1140:	f3 0f 1e fa          	endbr64 
    1144:	80 3d c5 2e 00 00 00 	cmpb   $0x0,0x2ec5(%rip)        # 4010 <__TMC_END__>
    114b:	75 2b                	jne    1178 <__do_global_dtors_aux+0x38>
    114d:	55                   	push   %rbp
    114e:	48 83 3d a2 2e 00 00 	cmpq   $0x0,0x2ea2(%rip)        # 3ff8 <__cxa_finalize@GLIBC_2.2.5>
    1155:	00 
    1156:	48 89 e5             	mov    %rsp,%rbp
    1159:	74 0c                	je     1167 <__do_global_dtors_aux+0x27>
    115b:	48 8b 3d a6 2e 00 00 	mov    0x2ea6(%rip),%rdi        # 4008 <__dso_handle>
    1162:	e8 f9 fe ff ff       	callq  1060 <__cxa_finalize@plt>
    1167:	e8 64 ff ff ff       	callq  10d0 <deregister_tm_clones>
    116c:	c6 05 9d 2e 00 00 01 	movb   $0x1,0x2e9d(%rip)        # 4010 <__TMC_END__>
    1173:	5d                   	pop    %rbp
    1174:	c3                   	retq   
    1175:	0f 1f 00             	nopl   (%rax)
    1178:	c3                   	retq   
    1179:	0f 1f 80 00 00 00 00 	nopl   0x0(%rax)

0000000000001180 <frame_dummy>:
    1180:	f3 0f 1e fa          	endbr64 
    1184:	e9 77 ff ff ff       	jmpq   1100 <register_tm_clones>

0000000000001189 <push>:
    1189:	f3 0f 1e fa          	endbr64 
    118d:	55                   	push   %rbp
    118e:	48 89 e5             	mov    %rsp,%rbp
    1191:	48 83 ec 20          	sub    $0x20,%rsp
    1195:	48 89 7d e8          	mov    %rdi,-0x18(%rbp)
    1199:	89 75 e4             	mov    %esi,-0x1c(%rbp)
    119c:	bf 10 00 00 00       	mov    $0x10,%edi
    11a1:	e8 ea fe ff ff       	callq  1090 <malloc@plt>
    11a6:	48 89 45 f8          	mov    %rax,-0x8(%rbp)
    11aa:	48 8b 45 f8          	mov    -0x8(%rbp),%rax
    11ae:	8b 55 e4             	mov    -0x1c(%rbp),%edx
    11b1:	89 10                	mov    %edx,(%rax)
    11b3:	48 8b 45 e8          	mov    -0x18(%rbp),%rax
    11b7:	48 8b 10             	mov    (%rax),%rdx
    11ba:	48 8b 45 f8          	mov    -0x8(%rbp),%rax
    11be:	48 89 50 08          	mov    %rdx,0x8(%rax)
    11c2:	48 8b 45 e8          	mov    -0x18(%rbp),%rax
    11c6:	48 8b 55 f8          	mov    -0x8(%rbp),%rdx
    11ca:	48 89 10             	mov    %rdx,(%rax)
    11cd:	90                   	nop
    11ce:	c9                   	leaveq 
    11cf:	c3                   	retq   

00000000000011d0 <insertAfter>:
    11d0:	f3 0f 1e fa          	endbr64 
    11d4:	55                   	push   %rbp
    11d5:	48 89 e5             	mov    %rsp,%rbp
    11d8:	48 83 ec 20          	sub    $0x20,%rsp
    11dc:	48 89 7d e8          	mov    %rdi,-0x18(%rbp)
    11e0:	89 75 e4             	mov    %esi,-0x1c(%rbp)
    11e3:	48 83 7d e8 00       	cmpq   $0x0,-0x18(%rbp)
    11e8:	75 13                	jne    11fd <insertAfter+0x2d>
    11ea:	48 8d 3d 17 0e 00 00 	lea    0xe17(%rip),%rdi        # 2008 <_IO_stdin_used+0x8>
    11f1:	b8 00 00 00 00       	mov    $0x0,%eax
    11f6:	e8 85 fe ff ff       	callq  1080 <printf@plt>
    11fb:	eb 33                	jmp    1230 <insertAfter+0x60>
    11fd:	bf 10 00 00 00       	mov    $0x10,%edi
    1202:	e8 89 fe ff ff       	callq  1090 <malloc@plt>
    1207:	48 89 45 f8          	mov    %rax,-0x8(%rbp)
    120b:	48 8b 45 f8          	mov    -0x8(%rbp),%rax
    120f:	8b 55 e4             	mov    -0x1c(%rbp),%edx
    1212:	89 10                	mov    %edx,(%rax)
    1214:	48 8b 45 e8          	mov    -0x18(%rbp),%rax
    1218:	48 8b 50 08          	mov    0x8(%rax),%rdx
    121c:	48 8b 45 f8          	mov    -0x8(%rbp),%rax
    1220:	48 89 50 08          	mov    %rdx,0x8(%rax)
    1224:	48 8b 45 e8          	mov    -0x18(%rbp),%rax
    1228:	48 8b 55 f8          	mov    -0x8(%rbp),%rdx
    122c:	48 89 50 08          	mov    %rdx,0x8(%rax)
    1230:	c9                   	leaveq 
    1231:	c3                   	retq   

0000000000001232 <append>:
    1232:	f3 0f 1e fa          	endbr64 
    1236:	55                   	push   %rbp
    1237:	48 89 e5             	mov    %rsp,%rbp
    123a:	48 83 ec 20          	sub    $0x20,%rsp
    123e:	48 89 7d e8          	mov    %rdi,-0x18(%rbp)
    1242:	89 75 e4             	mov    %esi,-0x1c(%rbp)
    1245:	bf 10 00 00 00       	mov    $0x10,%edi
    124a:	e8 41 fe ff ff       	callq  1090 <malloc@plt>
    124f:	48 89 45 f8          	mov    %rax,-0x8(%rbp)
    1253:	48 8b 45 e8          	mov    -0x18(%rbp),%rax
    1257:	48 8b 00             	mov    (%rax),%rax
    125a:	48 89 45 f0          	mov    %rax,-0x10(%rbp)
    125e:	48 8b 45 f8          	mov    -0x8(%rbp),%rax
    1262:	8b 55 e4             	mov    -0x1c(%rbp),%edx
    1265:	89 10                	mov    %edx,(%rax)
    1267:	48 8b 45 f8          	mov    -0x8(%rbp),%rax
    126b:	48 c7 40 08 00 00 00 	movq   $0x0,0x8(%rax)
    1272:	00 
    1273:	48 8b 45 e8          	mov    -0x18(%rbp),%rax
    1277:	48 8b 00             	mov    (%rax),%rax
    127a:	48 85 c0             	test   %rax,%rax
    127d:	75 19                	jne    1298 <append+0x66>
    127f:	48 8b 45 e8          	mov    -0x18(%rbp),%rax
    1283:	48 8b 55 f8          	mov    -0x8(%rbp),%rdx
    1287:	48 89 10             	mov    %rdx,(%rax)
    128a:	eb 26                	jmp    12b2 <append+0x80>
    128c:	48 8b 45 f0          	mov    -0x10(%rbp),%rax
    1290:	48 8b 40 08          	mov    0x8(%rax),%rax
    1294:	48 89 45 f0          	mov    %rax,-0x10(%rbp)
    1298:	48 8b 45 f0          	mov    -0x10(%rbp),%rax
    129c:	48 8b 40 08          	mov    0x8(%rax),%rax
    12a0:	48 85 c0             	test   %rax,%rax
    12a3:	75 e7                	jne    128c <append+0x5a>
    12a5:	48 8b 45 f0          	mov    -0x10(%rbp),%rax
    12a9:	48 8b 55 f8          	mov    -0x8(%rbp),%rdx
    12ad:	48 89 50 08          	mov    %rdx,0x8(%rax)
    12b1:	90                   	nop
    12b2:	c9                   	leaveq 
    12b3:	c3                   	retq   

00000000000012b4 <printList>:
    12b4:	f3 0f 1e fa          	endbr64 
    12b8:	55                   	push   %rbp
    12b9:	48 89 e5             	mov    %rsp,%rbp
    12bc:	48 83 ec 10          	sub    $0x10,%rsp
    12c0:	48 89 7d f8          	mov    %rdi,-0x8(%rbp)
    12c4:	eb 25                	jmp    12eb <printList+0x37>
    12c6:	48 8b 45 f8          	mov    -0x8(%rbp),%rax
    12ca:	8b 00                	mov    (%rax),%eax
    12cc:	89 c6                	mov    %eax,%esi
    12ce:	48 8d 3d 5a 0d 00 00 	lea    0xd5a(%rip),%rdi        # 202f <_IO_stdin_used+0x2f>
    12d5:	b8 00 00 00 00       	mov    $0x0,%eax
    12da:	e8 a1 fd ff ff       	callq  1080 <printf@plt>
    12df:	48 8b 45 f8          	mov    -0x8(%rbp),%rax
    12e3:	48 8b 40 08          	mov    0x8(%rax),%rax
    12e7:	48 89 45 f8          	mov    %rax,-0x8(%rbp)
    12eb:	48 83 7d f8 00       	cmpq   $0x0,-0x8(%rbp)
    12f0:	75 d4                	jne    12c6 <printList+0x12>
    12f2:	90                   	nop
    12f3:	90                   	nop
    12f4:	c9                   	leaveq 
    12f5:	c3                   	retq   

00000000000012f6 <main>:
    12f6:	f3 0f 1e fa          	endbr64 
    12fa:	55                   	push   %rbp
    12fb:	48 89 e5             	mov    %rsp,%rbp
    12fe:	48 83 ec 10          	sub    $0x10,%rsp
    1302:	64 48 8b 04 25 28 00 	mov    %fs:0x28,%rax
    1309:	00 00 
    130b:	48 89 45 f8          	mov    %rax,-0x8(%rbp)
    130f:	31 c0                	xor    %eax,%eax
    1311:	48 c7 45 f0 00 00 00 	movq   $0x0,-0x10(%rbp)
    1318:	00 
    1319:	48 8d 45 f0          	lea    -0x10(%rbp),%rax
    131d:	be 0d 00 00 00       	mov    $0xd,%esi
    1322:	48 89 c7             	mov    %rax,%rdi
    1325:	e8 08 ff ff ff       	callq  1232 <append>
    132a:	48 8d 45 f0          	lea    -0x10(%rbp),%rax
    132e:	be 07 00 00 00       	mov    $0x7,%esi
    1333:	48 89 c7             	mov    %rax,%rdi
    1336:	e8 4e fe ff ff       	callq  1189 <push>
    133b:	48 8d 45 f0          	lea    -0x10(%rbp),%rax
    133f:	be 01 00 00 00       	mov    $0x1,%esi
    1344:	48 89 c7             	mov    %rax,%rdi
    1347:	e8 3d fe ff ff       	callq  1189 <push>
    134c:	48 8d 45 f0          	lea    -0x10(%rbp),%rax
    1350:	be 04 00 00 00       	mov    $0x4,%esi
    1355:	48 89 c7             	mov    %rax,%rdi
    1358:	e8 73 fe ff ff       	callq  11d0 <insertAfter>
    135d:	48 8b 45 f0          	mov    -0x10(%rbp),%rax
    1361:	48 8b 40 08          	mov    0x8(%rax),%rax
    1365:	be 08 00 00 00       	mov    $0x8,%esi
    136a:	48 89 c7             	mov    %rax,%rdi
    136d:	e8 5e fe ff ff       	callq  11d0 <insertAfter>
    1372:	48 8d 3d bb 0c 00 00 	lea    0xcbb(%rip),%rdi        # 2034 <_IO_stdin_used+0x34>
    1379:	b8 00 00 00 00       	mov    $0x0,%eax
    137e:	e8 fd fc ff ff       	callq  1080 <printf@plt>
    1383:	48 8b 45 f0          	mov    -0x10(%rbp),%rax
    1387:	48 89 c7             	mov    %rax,%rdi
    138a:	e8 25 ff ff ff       	callq  12b4 <printList>
    138f:	b8 00 00 00 00       	mov    $0x0,%eax
    1394:	48 8b 55 f8          	mov    -0x8(%rbp),%rdx
    1398:	64 48 33 14 25 28 00 	xor    %fs:0x28,%rdx
    139f:	00 00 
    13a1:	74 05                	je     13a8 <main+0xb2>
    13a3:	e8 c8 fc ff ff       	callq  1070 <__stack_chk_fail@plt>
    13a8:	c9                   	leaveq 
    13a9:	c3                   	retq   
    13aa:	66 0f 1f 44 00 00    	nopw   0x0(%rax,%rax,1)

00000000000013b0 <__libc_csu_init>:
    13b0:	f3 0f 1e fa          	endbr64 
    13b4:	41 57                	push   %r15
    13b6:	4c 8d 3d eb 29 00 00 	lea    0x29eb(%rip),%r15        # 3da8 <__frame_dummy_init_array_entry>
    13bd:	41 56                	push   %r14
    13bf:	49 89 d6             	mov    %rdx,%r14
    13c2:	41 55                	push   %r13
    13c4:	49 89 f5             	mov    %rsi,%r13
    13c7:	41 54                	push   %r12
    13c9:	41 89 fc             	mov    %edi,%r12d
    13cc:	55                   	push   %rbp
    13cd:	48 8d 2d dc 29 00 00 	lea    0x29dc(%rip),%rbp        # 3db0 <__init_array_end>
    13d4:	53                   	push   %rbx
    13d5:	4c 29 fd             	sub    %r15,%rbp
    13d8:	48 83 ec 08          	sub    $0x8,%rsp
    13dc:	e8 1f fc ff ff       	callq  1000 <_init>
    13e1:	48 c1 fd 03          	sar    $0x3,%rbp
    13e5:	74 1f                	je     1406 <__libc_csu_init+0x56>
    13e7:	31 db                	xor    %ebx,%ebx
    13e9:	0f 1f 80 00 00 00 00 	nopl   0x0(%rax)
    13f0:	4c 89 f2             	mov    %r14,%rdx
    13f3:	4c 89 ee             	mov    %r13,%rsi
    13f6:	44 89 e7             	mov    %r12d,%edi
    13f9:	41 ff 14 df          	callq  *(%r15,%rbx,8)
    13fd:	48 83 c3 01          	add    $0x1,%rbx
    1401:	48 39 dd             	cmp    %rbx,%rbp
    1404:	75 ea                	jne    13f0 <__libc_csu_init+0x40>
    1406:	48 83 c4 08          	add    $0x8,%rsp
    140a:	5b                   	pop    %rbx
    140b:	5d                   	pop    %rbp
    140c:	41 5c                	pop    %r12
    140e:	41 5d                	pop    %r13
    1410:	41 5e                	pop    %r14
    1412:	41 5f                	pop    %r15
    1414:	c3                   	retq   
    1415:	66 66 2e 0f 1f 84 00 	data16 nopw %cs:0x0(%rax,%rax,1)
    141c:	00 00 00 00 

0000000000001420 <__libc_csu_fini>:
    1420:	f3 0f 1e fa          	endbr64 
    1424:	c3                   	retq   

Disassembly of section .fini:

0000000000001428 <_fini>:
    1428:	f3 0f 1e fa          	endbr64 
    142c:	48 83 ec 08          	sub    $0x8,%rsp
    1430:	48 83 c4 08          	add    $0x8,%rsp
    1434:	c3                   	retq   
